target datalayout = "e-m:e-p270:32:32-p271:32:32-p272:64:64-i64:64-i128:128-f80:128-n8:16:32:64-S128"
target triple = "x86_64-pc-linux-gnu"

%struct.ggml_backend_buffer_i = type { ptr, ptr, ptr, ptr, ptr, ptr, ptr, ptr, ptr }
%struct.ggml_backend_buffer = type { %struct.ggml_backend_buffer_i, ptr, ptr, i64, i32 }

; Function Attrs: mustprogress uwtable
define void @ggml_backend_buffer_clear(ptr noundef %0, i8 noundef zeroext %1) #0 {
  %3 = alloca ptr, align 8
  %4 = alloca i8, align 1
  store ptr %0, ptr %3, align 8, !tbaa !24
  store i8 %1, ptr %4, align 1, !tbaa !36
  %5 = load ptr, ptr %3, align 8, !tbaa !24
  %6 = getelementptr inbounds nuw %struct.ggml_backend_buffer, ptr %5, i32 0, i32 3
  %7 = load i64, ptr %6, align 8, !tbaa !22
  %8 = icmp eq i64 %7, 0
  br i1 %8, label %9, label %10

9:                                                ; preds = %2
  br label %17

10:                                               ; preds = %2
  %11 = load ptr, ptr %3, align 8, !tbaa !24
  %12 = getelementptr inbounds nuw %struct.ggml_backend_buffer, ptr %11, i32 0, i32 0
  %13 = getelementptr inbounds nuw %struct.ggml_backend_buffer_i, ptr %12, i32 0, i32 7
  %14 = load ptr, ptr %13, align 8, !tbaa !37
  %15 = load ptr, ptr %3, align 8, !tbaa !24
  %16 = load i8, ptr %4, align 1, !tbaa !36
  call void %14(ptr noundef %15, i8 noundef zeroext %16)
  br label %17

17:                                               ; preds = %10, %9
  ret void
}