; Function Attrs: mustprogress uwtable
define void @ggml_backend_buffer_clear(ptr noundef %0, i8 noundef zeroext %1) local_unnamed_addr #0 {
  %3 = getelementptr inbounds nuw i8, ptr %0, i64 88
  %4 = load i64, ptr %3, align 8, !tbaa !20
  %5 = icmp eq i64 %4, 0
  br i1 %5, label %9, label %6

6:                                                ; preds = %2
  %7 = getelementptr inbounds nuw i8, ptr %0, i64 56
  %8 = load ptr, ptr %7, align 8, !tbaa !30
  tail call void %8(ptr noundef nonnull %0, i8 noundef zeroext %1)
  br label %9

9:                                                ; preds = %2, %6
  ret void
}